; Function Attrs: mustprogress uwtable
define internal noundef zeroext i1 @_ZZN9grpc_core16GrpcXdsBootstrap6CreateESt17basic_string_viewIcSt11char_traitsIcEEENK11XdsJsonArgs9IsEnabledES4_(ptr nonnull readnone align 8 captures(none) %0, i64 %1, ptr readonly captures(none) %2) unnamed_addr #3 align 2 personality ptr @__gxx_personality_v0 {
  %4 = icmp eq i64 %1, 10
  br i1 %4, label %_ZNSt11char_traitsIcE7compareEPKcS2_m.exit.i.i, label %_ZSteqIcSt11char_traitsIcEEbSt17basic_string_viewIT_T0_ENSt15__type_identityIS5_E4typeE.exit.thread

_ZNSt11char_traitsIcE7compareEPKcS2_m.exit.i.i:   ; preds = %3
  %bcmp.i = tail call i32 @bcmp(ptr noundef nonnull dereferenceable(10) %2, ptr noundef nonnull dereferenceable(10) @.str.15, i64 10)
  %5 = icmp eq i32 %bcmp.i, 0
  br i1 %5, label %_ZSteqIcSt11char_traitsIcEEbSt17basic_string_viewIT_T0_ENSt15__type_identityIS5_E4typeE.exit, label %_ZSteqIcSt11char_traitsIcEEbSt17basic_string_viewIT_T0_ENSt15__type_identityIS5_E4typeE.exit.thread

_ZSteqIcSt11char_traitsIcEEbSt17basic_string_viewIT_T0_ENSt15__type_identityIS5_E4typeE.exit: ; preds = %_ZNSt11char_traitsIcE7compareEPKcS2_m.exit.i.i
  %6 = tail call noundef zeroext i1 @_ZN9grpc_core20XdsFederationEnabledEv()
  br label %_ZSteqIcSt11char_traitsIcEEbSt17basic_string_viewIT_T0_ENSt15__type_identityIS5_E4typeE.exit.thread

_ZSteqIcSt11char_traitsIcEEbSt17basic_string_viewIT_T0_ENSt15__type_identityIS5_E4typeE.exit.thread: ; preds = %_ZNSt11char_traitsIcE7compareEPKcS2_m.exit.i.i, %3, %_ZSteqIcSt11char_traitsIcEEbSt17basic_string_viewIT_T0_ENSt15__type_identityIS5_E4typeE.exit
  %.0 = phi i1 [ %6, %_ZSteqIcSt11char_traitsIcEEbSt17basic_string_viewIT_T0_ENSt15__type_identityIS5_E4typeE.exit ], [ true, %3 ], [ true, %_ZNSt11char_traitsIcE7compareEPKcS2_m.exit.i.i ]
  ret i1 %.0
}